target datalayout = "e-m:e-p270:32:32-p271:32:32-p272:64:64-i64:64-i128:128-f80:128-n8:16:32:64-S128"
target triple = "x86_64-unknown-linux-gnu"

%"class.base::BasicStringPiece" = type { ptr, i64 }
%"class.base::Value.base" = type <{ ptr, i32 }>
%"class.base::internal::(anonymous namespace)::JSONStringValue" = type { %"class.base::Value.base", %"class.base::BasicStringPiece" }
%"class.std::__cxx11::basic_string.82" = type { %"struct.std::__cxx11::basic_string<unsigned short, base::string16_char_traits>::_Alloc_hider", i64, %union.anon.86 }
%"struct.std::__cxx11::basic_string<unsigned short, base::string16_char_traits>::_Alloc_hider" = type { ptr }
%union.anon.86 = type { i64, [8 x i8] }

; Function Attrs: mustprogress uwtable
define internal noundef zeroext i1 @_ZNK4base8internal12_GLOBAL__N_115JSONStringValue11GetAsStringEPNSt7__cxx1112basic_stringItNS_20string16_char_traitsESaItEEE(ptr noundef nonnull align 8 dereferenceable(32) %this, ptr noundef %out_value) unnamed_addr #1 align 2 {
entry:
  %this.addr = alloca ptr, align 8
  %out_value.addr = alloca ptr, align 8
  %ref.tmp = alloca %"class.std::__cxx11::basic_string.82", align 8
  %agg.tmp = alloca %"class.base::BasicStringPiece", align 8
  store ptr %this, ptr %this.addr, align 8
  store ptr %out_value, ptr %out_value.addr, align 8
  %this1 = load ptr, ptr %this.addr, align 8
  %string_piece_ = getelementptr inbounds %"class.base::internal::(anonymous namespace)::JSONStringValue", ptr %this1, i32 0, i32 1
  call void @llvm.memcpy.p0.p0.i64(ptr align 8 %agg.tmp, ptr align 8 %string_piece_, i64 16, i1 false)
  %0 = getelementptr inbounds { ptr, i64 }, ptr %agg.tmp, i32 0, i32 0
  %1 = load ptr, ptr %0, align 8
  %2 = getelementptr inbounds { ptr, i64 }, ptr %agg.tmp, i32 0, i32 1
  %3 = load i64, ptr %2, align 8
  call void @_ZN4base11UTF8ToUTF16ENS_16BasicStringPieceINSt7__cxx1112basic_stringIcSt11char_traitsIcESaIcEEEEE(ptr sret(%"class.std::__cxx11::basic_string.82") align 8 %ref.tmp, ptr %1, i64 %3)
  %4 = load ptr, ptr %out_value.addr, align 8
  %call = call noundef nonnull align 8 dereferenceable(32) ptr @_ZNSt7__cxx1112basic_stringItN4base20string16_char_traitsESaItEEaSEOS4_(ptr noundef nonnull align 8 dereferenceable(32) %4, ptr noundef nonnull align 8 dereferenceable(32) %ref.tmp) #11
  call void @_ZNSt7__cxx1112basic_stringItN4base20string16_char_traitsESaItEED1Ev(ptr noundef nonnull align 8 dereferenceable(32) %ref.tmp) #11
  ret i1 true
}