; Function Attrs: mustprogress uwtable
define internal noundef zeroext i1 @_ZNK4base8internal12_GLOBAL__N_115JSONStringValue11GetAsStringEPNSt7__cxx1112basic_stringItNS_20string16_char_traitsESaItEEE(ptr nocapture noundef nonnull readonly align 8 dereferenceable(32) %this, ptr noundef %out_value) unnamed_addr #2 align 2 {
entry:
  %ref.tmp = alloca %"class.std::__cxx11::basic_string.82", align 8
  %string_piece_ = getelementptr inbounds i8, ptr %this, i64 16
  %agg.tmp.sroa.0.0.copyload = load ptr, ptr %string_piece_, align 8
  %agg.tmp.sroa.2.0.string_piece_.sroa_idx = getelementptr inbounds i8, ptr %this, i64 24
  %agg.tmp.sroa.2.0.copyload = load i64, ptr %agg.tmp.sroa.2.0.string_piece_.sroa_idx, align 8
  call void @_ZN4base11UTF8ToUTF16ENS_16BasicStringPieceINSt7__cxx1112basic_stringIcSt11char_traitsIcESaIcEEEEE(ptr nonnull sret(%"class.std::__cxx11::basic_string.82") align 8 %ref.tmp, ptr %agg.tmp.sroa.0.0.copyload, i64 %agg.tmp.sroa.2.0.copyload)
  %call = call noundef nonnull align 8 dereferenceable(32) ptr @_ZNSt7__cxx1112basic_stringItN4base20string16_char_traitsESaItEEaSEOS4_(ptr noundef nonnull align 8 dereferenceable(32) %out_value, ptr noundef nonnull align 8 dereferenceable(32) %ref.tmp) #17
  call void @_ZNSt7__cxx1112basic_stringItN4base20string16_char_traitsESaItEED1Ev(ptr noundef nonnull align 8 dereferenceable(32) %ref.tmp) #17
  ret i1 true
}